; Function Attrs: nounwind uwtable
define void @Abc_ObjFaninSort(ptr noundef readonly captures(none) %0) local_unnamed_addr #2 {
  %2 = getelementptr inbounds nuw i8, ptr %0, i64 56
  %3 = load ptr, ptr %2, align 8, !tbaa !3
  %4 = tail call i32 @Abc_SopGetVarNum(ptr noundef %3) #17
  %5 = getelementptr i8, ptr %0, i64 28
  %.val3750 = load i32, ptr %5, align 4, !tbaa !40
  %6 = icmp sgt i32 %.val3750, 0
  br i1 %6, label %.lr.ph52, label %._crit_edge

.lr.ph52:                                         ; preds = %1
  %7 = getelementptr i8, ptr %0, i64 32
  %8 = sext i32 %4 to i64
  br label %10

.loopexit44.loopexit:                             ; preds = %.loopexit
  %.pre = sext i32 %.val to i64
  br label %.loopexit44

.loopexit44:                                      ; preds = %.loopexit44.loopexit, %10
  %.pre-phi = phi i64 [ %.pre, %.loopexit44.loopexit ], [ %11, %10 ]
  %.val37 = phi i32 [ %.val, %.loopexit44.loopexit ], [ %.val3761, %10 ]
  %9 = icmp slt i64 %indvars.iv.next57, %.pre-phi
  %indvars.iv.next = add nuw nsw i64 %indvars.iv, 1
  br i1 %9, label %10, label %._crit_edge, !llvm.loop !142

10:                                               ; preds = %.lr.ph52, %.loopexit44
  %.val3761 = phi i32 [ %.val3750, %.lr.ph52 ], [ %.val37, %.loopexit44 ]
  %indvars.iv56 = phi i64 [ 0, %.lr.ph52 ], [ %indvars.iv.next57, %.loopexit44 ]
  %indvars.iv = phi i64 [ 1, %.lr.ph52 ], [ %indvars.iv.next, %.loopexit44 ]
  %indvars.iv.next57 = add nuw nsw i64 %indvars.iv56, 1
  %11 = sext i32 %.val3761 to i64
  %12 = icmp slt i64 %indvars.iv.next57, %11
  br i1 %12, label %.lr.ph49, label %.loopexit44

.lr.ph49:                                         ; preds = %10, %.loopexit
  %indvars.iv53 = phi i64 [ %indvars.iv.next54, %.loopexit ], [ %indvars.iv, %10 ]
  %.val43 = load ptr, ptr %7, align 8, !tbaa !42
  %13 = getelementptr inbounds nuw i32, ptr %.val43, i64 %indvars.iv56
  %14 = load i32, ptr %13, align 4, !tbaa !6
  %15 = getelementptr inbounds nuw i32, ptr %.val43, i64 %indvars.iv53
  %16 = load i32, ptr %15, align 4, !tbaa !6
  %17 = icmp slt i32 %14, %16
  br i1 %17, label %.loopexit, label %18

18:                                               ; preds = %.lr.ph49
  store i32 %16, ptr %13, align 4, !tbaa !6
  store i32 %14, ptr %15, align 4, !tbaa !6
  %19 = load i8, ptr %3, align 1, !tbaa !3
  %.not45 = icmp eq i8 %19, 0
  br i1 %.not45, label %.loopexit, label %.lr.ph

.lr.ph:                                           ; preds = %18, %.lr.ph
  %.046 = phi ptr [ %25, %.lr.ph ], [ %3, %18 ]
  %20 = getelementptr inbounds nuw i8, ptr %.046, i64 %indvars.iv56
  %21 = load i8, ptr %20, align 1, !tbaa !3
  %22 = getelementptr inbounds nuw i8, ptr %.046, i64 %indvars.iv53
  %23 = load i8, ptr %22, align 1, !tbaa !3
  store i8 %23, ptr %20, align 1, !tbaa !3
  store i8 %21, ptr %22, align 1, !tbaa !3
  %24 = getelementptr i8, ptr %.046, i64 %8
  %25 = getelementptr i8, ptr %24, i64 3
  %26 = load i8, ptr %25, align 1, !tbaa !3
  %.not = icmp eq i8 %26, 0
  br i1 %.not, label %.loopexit, label %.lr.ph, !llvm.loop !143

.loopexit:                                        ; preds = %.lr.ph, %18, %.lr.ph49
  %indvars.iv.next54 = add nuw nsw i64 %indvars.iv53, 1
  %.val = load i32, ptr %5, align 4, !tbaa !40
  %27 = trunc nuw i64 %indvars.iv.next54 to i32
  %28 = icmp sgt i32 %.val, %27
  br i1 %28, label %.lr.ph49, label %.loopexit44.loopexit, !llvm.loop !144

._crit_edge:                                      ; preds = %.loopexit44, %1
  ret void
}